; Function Attrs: mustprogress uwtable
define hidden noundef i64 @_ZN14prime_iterator4nextEv(ptr noundef nonnull align 8 captures(none) dereferenceable(17) %0) local_unnamed_addr #3 align 2 personality ptr @__gxx_personality_v0 {
  %2 = load i32, ptr %0, align 8, !tbaa !32
  %3 = add i32 %2, 1
  store i32 %3, ptr %0, align 8, !tbaa !32
  %4 = getelementptr inbounds nuw i8, ptr %0, i64 16
  %5 = load i8, ptr %4, align 8, !tbaa !37, !range !38, !noundef !39
  %6 = trunc nuw i8 %5 to i1
  br i1 %6, label %11, label %7

7:                                                ; preds = %1
  %8 = getelementptr inbounds nuw i8, ptr %0, i64 8
  %9 = load ptr, ptr %8, align 8, !tbaa !36
  %10 = tail call noundef i64 @_ZN15prime_generatorclEj(ptr noundef nonnull align 8 dereferenceable(8) %9, i32 noundef %2)
  br label %23

11:                                               ; preds = %1
  %12 = load ptr, ptr @_ZL16g_prime_iterator, align 8, !tbaa !40
  %13 = tail call noundef i32 @pthread_mutex_lock(ptr noundef nonnull align 8 dereferenceable(40) %12) #20
  %.not.i.i = icmp eq i32 %13, 0
  br i1 %.not.i.i, label %_ZNSt10lock_guardISt5mutexEC2ERS0_.exit, label %14

14:                                               ; preds = %11
  tail call void @_ZSt20__throw_system_errori(i32 noundef %13) #21
  unreachable

_ZNSt10lock_guardISt5mutexEC2ERS0_.exit:          ; preds = %11
  %15 = getelementptr inbounds nuw i8, ptr %0, i64 8
  %16 = load ptr, ptr %15, align 8, !tbaa !36
  %17 = invoke noundef i64 @_ZN15prime_generatorclEj(ptr noundef nonnull align 8 dereferenceable(8) %16, i32 noundef %2)
          to label %18 unwind label %20

18:                                               ; preds = %_ZNSt10lock_guardISt5mutexEC2ERS0_.exit
  %19 = tail call noundef i32 @pthread_mutex_unlock(ptr noundef nonnull align 8 dereferenceable(40) %12) #20
  br label %23

20:                                               ; preds = %_ZNSt10lock_guardISt5mutexEC2ERS0_.exit
  %21 = landingpad { ptr, i32 }
          cleanup
  %22 = tail call noundef i32 @pthread_mutex_unlock(ptr noundef nonnull align 8 dereferenceable(40) %12) #20
  resume { ptr, i32 } %21

23:                                               ; preds = %18, %7
  %.0 = phi i64 [ %17, %18 ], [ %10, %7 ]
  ret i64 %.0
}